target datalayout = "e-m:e-p270:32:32-p271:32:32-p272:64:64-i64:64-i128:128-f80:128-n8:16:32:64-S128"
target triple = "x86_64-pc-linux-gnu"

%union.pthread_mutex_t = type { %struct.__pthread_mutex_s }
%struct.__pthread_mutex_s = type { i32, i32, i32, i32, i32, i16, i16, %struct.__pthread_internal_list }
%struct.__pthread_internal_list = type { ptr, ptr }
%struct.timeval = type { i64, i64 }
%struct.LIBEVENT_THREAD = type { i64, ptr, %struct.thread_notify, %struct.thread_notify, %union.pthread_mutex_t, %struct.iop_head_s, i32, i32, i32, %struct.thread_stats, [3 x %struct.io_queue_s], ptr, ptr, ptr, ptr, ptr, ptr, ptr, i32 }
%struct.thread_notify = type { %struct.event, i32 }
%struct.event = type { %struct.event_callback, %union.anon.0, i32, ptr, %union.anon.2, i16, i16, %struct.timeval }
%struct.event_callback = type { %struct.anon, i16, i8, i8, %union.anon, ptr }
%struct.anon = type { ptr, ptr }
%union.anon = type { ptr }
%union.anon.0 = type { %struct.anon.1 }
%struct.anon.1 = type { ptr, ptr }
%union.anon.2 = type { %struct.anon.3 }
%struct.anon.3 = type { %struct.anon.4, %struct.timeval }
%struct.anon.4 = type { ptr, ptr }
%struct.iop_head_s = type { ptr, ptr }
%struct.thread_stats = type { %union.pthread_mutex_t, i64, i64, i64, i64, i64, i64, i64, i64, i64, i64, i64, i64, i64, i64, i64, i64, i64, i64, i64, i64, i64, i64, i64, i64, i64, i64, i64, i64, i64, i64, [64 x %struct.slab_stats], [256 x i64], i64, i64, i64 }
%struct.slab_stats = type { i64, i64, i64, i64, i64, i64, i64, i64 }
%struct.io_queue_s = type { ptr, %struct.iop_head_s, ptr, i32 }
%struct._io_pending_t = type { i8, i8, i8, ptr, ptr, ptr, ptr, ptr, %struct.anon.11, [120 x i8] }
%struct.anon.11 = type { ptr }

@.str.13 = private unnamed_addr constant [33 x i8] c"failed writing to worker eventfd\00", align 1

; Function Attrs: nounwind uwtable
define dso_local void @return_io_pending(ptr noundef %0) #0 {
  %2 = alloca ptr, align 8
  %3 = alloca i8, align 1
  %4 = alloca ptr, align 8
  %5 = alloca i64, align 8
  store ptr %0, ptr %2, align 8, !tbaa !88
  call void @llvm.lifetime.start.p0(i64 1, ptr %3) #8
  store i8 0, ptr %3, align 1, !tbaa !10
  call void @llvm.lifetime.start.p0(i64 8, ptr %4) #8
  %6 = load ptr, ptr %2, align 8, !tbaa !88
  %7 = getelementptr inbounds nuw %struct._io_pending_t, ptr %6, i32 0, i32 3
  %8 = load ptr, ptr %7, align 8, !tbaa !89
  store ptr %8, ptr %4, align 8, !tbaa !8
  %9 = load ptr, ptr %4, align 8, !tbaa !8
  %10 = getelementptr inbounds nuw %struct.LIBEVENT_THREAD, ptr %9, i32 0, i32 4
  %11 = call i32 @pthread_mutex_lock(ptr noundef %10) #8
  %12 = load ptr, ptr %4, align 8, !tbaa !8
  %13 = getelementptr inbounds nuw %struct.LIBEVENT_THREAD, ptr %12, i32 0, i32 5
  %14 = getelementptr inbounds nuw %struct.iop_head_s, ptr %13, i32 0, i32 0
  %15 = load ptr, ptr %14, align 8, !tbaa !92
  %16 = icmp eq ptr %15, null
  br i1 %16, label %17, label %18

17:                                               ; preds = %1
  store i8 1, ptr %3, align 1, !tbaa !10
  br label %18

18:                                               ; preds = %17, %1
  br label %19

19:                                               ; preds = %18
  %20 = load ptr, ptr %2, align 8, !tbaa !88
  %21 = getelementptr inbounds nuw %struct._io_pending_t, ptr %20, i32 0, i32 8
  %22 = getelementptr inbounds nuw %struct.anon.11, ptr %21, i32 0, i32 0
  store ptr null, ptr %22, align 8, !tbaa !93
  %23 = load ptr, ptr %2, align 8, !tbaa !88
  %24 = load ptr, ptr %4, align 8, !tbaa !8
  %25 = getelementptr inbounds nuw %struct.LIBEVENT_THREAD, ptr %24, i32 0, i32 5
  %26 = getelementptr inbounds nuw %struct.iop_head_s, ptr %25, i32 0, i32 1
  %27 = load ptr, ptr %26, align 8, !tbaa !94
  store ptr %23, ptr %27, align 8, !tbaa !88
  %28 = load ptr, ptr %2, align 8, !tbaa !88
  %29 = getelementptr inbounds nuw %struct._io_pending_t, ptr %28, i32 0, i32 8
  %30 = getelementptr inbounds nuw %struct.anon.11, ptr %29, i32 0, i32 0
  %31 = load ptr, ptr %4, align 8, !tbaa !8
  %32 = getelementptr inbounds nuw %struct.LIBEVENT_THREAD, ptr %31, i32 0, i32 5
  %33 = getelementptr inbounds nuw %struct.iop_head_s, ptr %32, i32 0, i32 1
  store ptr %30, ptr %33, align 8, !tbaa !94
  br label %34

34:                                               ; preds = %19
  br label %35

35:                                               ; preds = %34
  %36 = load ptr, ptr %4, align 8, !tbaa !8
  %37 = getelementptr inbounds nuw %struct.LIBEVENT_THREAD, ptr %36, i32 0, i32 4
  %38 = call i32 @pthread_mutex_unlock(ptr noundef %37) #8
  %39 = load i8, ptr %3, align 1, !tbaa !10, !range !20, !noundef !21
  %40 = trunc i8 %39 to i1
  br i1 %40, label %41, label %50

41:                                               ; preds = %35
  call void @llvm.lifetime.start.p0(i64 8, ptr %5) #8
  store i64 1, ptr %5, align 8, !tbaa !58
  %42 = load ptr, ptr %4, align 8, !tbaa !8
  %43 = getelementptr inbounds nuw %struct.LIBEVENT_THREAD, ptr %42, i32 0, i32 3
  %44 = getelementptr inbounds nuw %struct.thread_notify, ptr %43, i32 0, i32 1
  %45 = load i32, ptr %44, align 8, !tbaa !95
  %46 = call i64 @write(i32 noundef %45, ptr noundef %5, i64 noundef 8)
  %47 = icmp ne i64 %46, 8
  br i1 %47, label %48, label %49

48:                                               ; preds = %41
  call void @perror(ptr noundef @.str.13)
  br label %49

49:                                               ; preds = %48, %41
  call void @llvm.lifetime.end.p0(i64 8, ptr %5) #8
  br label %50

50:                                               ; preds = %49, %35
  call void @llvm.lifetime.end.p0(i64 8, ptr %4) #8
  call void @llvm.lifetime.end.p0(i64 1, ptr %3) #8
  ret void
}