; Function Attrs: nounwind uwtable
define dso_local void @return_io_pending(ptr noundef initializes((48, 56)) %0) local_unnamed_addr #0 {
  %2 = alloca i64, align 8
  %3 = getelementptr inbounds nuw i8, ptr %0, i64 8
  %4 = load ptr, ptr %3, align 8, !tbaa !87
  %5 = getelementptr inbounds nuw i8, ptr %4, i64 288
  %6 = tail call i32 @pthread_mutex_lock(ptr noundef nonnull %5) #15
  %7 = getelementptr inbounds nuw i8, ptr %4, i64 328
  %8 = load ptr, ptr %7, align 8, !tbaa !90
  %9 = icmp eq ptr %8, null
  %10 = getelementptr inbounds nuw i8, ptr %0, i64 48
  store ptr null, ptr %10, align 8, !tbaa !91
  %11 = getelementptr inbounds nuw i8, ptr %4, i64 336
  %12 = load ptr, ptr %11, align 8, !tbaa !92
  store ptr %0, ptr %12, align 8, !tbaa !93
  store ptr %10, ptr %11, align 8, !tbaa !92
  %13 = tail call i32 @pthread_mutex_unlock(ptr noundef nonnull %5) #15
  br i1 %9, label %14, label %20

14:                                               ; preds = %1
  call void @llvm.lifetime.start.p0(i64 8, ptr nonnull %2) #15
  store i64 1, ptr %2, align 8, !tbaa !57
  %15 = getelementptr inbounds nuw i8, ptr %4, i64 280
  %16 = load i32, ptr %15, align 8, !tbaa !94
  %17 = call i64 @write(i32 noundef %16, ptr noundef nonnull %2, i64 noundef 8) #15
  %.not = icmp eq i64 %17, 8
  br i1 %.not, label %19, label %18

18:                                               ; preds = %14
  tail call void @perror(ptr noundef nonnull @.str.13) #17
  br label %19

19:                                               ; preds = %18, %14
  call void @llvm.lifetime.end.p0(i64 8, ptr nonnull %2) #15
  br label %20

20:                                               ; preds = %19, %1
  ret void
}